target datalayout = "e-m:e-p270:32:32-p271:32:32-p272:64:64-i64:64-i128:128-f80:128-n8:16:32:64-S128"
target triple = "x86_64-pc-linux-gnu"

%"struct.std::atomic.9" = type { %"struct.std::__atomic_base.10" }
%"struct.std::__atomic_base.10" = type { i8 }
%"class.grpc_event_engine::experimental::SliceBuffer" = type { %struct.grpc_slice_buffer }
%struct.grpc_slice_buffer = type { ptr, ptr, i64, i64, i64, [6 x %struct.grpc_slice] }
%struct.grpc_slice = type { ptr, %"union.grpc_slice::grpc_slice_data" }
%"union.grpc_slice::grpc_slice_data" = type { %"struct.grpc_slice::grpc_slice_data::grpc_slice_refcounted", [8 x i8] }
%"struct.grpc_slice::grpc_slice_data::grpc_slice_refcounted" = type { i64, ptr }
%"struct.std::atomic" = type { %"struct.std::__atomic_base" }
%"struct.std::__atomic_base" = type { i64 }
%"class.grpc_event_engine::experimental::PosixEndpointImpl" = type { %"class.grpc_core::RefCounted", %"class.absl::lts_20240722::Mutex", %"class.grpc_event_engine::experimental::PosixSocketWrapper", i32, i8, i8, double, i32, i32, i32, double, %"struct.std::atomic.1", %"class.grpc_event_engine::experimental::SliceBuffer", ptr, i32, i8, ptr, i64, ptr, ptr, ptr, ptr, [8 x i8], %"class.absl::lts_20240722::AnyInvocable", %"class.absl::lts_20240722::AnyInvocable", %"class.grpc_event_engine::experimental::EventEngine::ResolvedAddress", %"class.grpc_event_engine::experimental::EventEngine::ResolvedAddress", %"class.std::shared_ptr", %"class.grpc_core::MemoryOwner", %"class.grpc_event_engine::experimental::MemoryAllocator::Reservation", ptr, [8 x i8], %"class.absl::lts_20240722::AnyInvocable.6", i32, i8, i8, %"struct.std::atomic.9", %"class.std::unique_ptr", ptr, i32, %"class.grpc_event_engine::experimental::TracedBufferList", ptr, ptr, %"class.std::shared_ptr.13", [8 x i8] }
%"class.grpc_core::RefCounted" = type { %"class.grpc_core::PolymorphicRefCount", %"class.grpc_core::RefCount" }
%"class.grpc_core::PolymorphicRefCount" = type { ptr }
%"class.grpc_core::RefCount" = type { %"struct.std::atomic" }
%"class.absl::lts_20240722::Mutex" = type { %"struct.std::atomic" }
%"class.grpc_event_engine::experimental::PosixSocketWrapper" = type { i32 }
%"struct.std::atomic.1" = type { %"struct.std::__atomic_base.2" }
%"struct.std::__atomic_base.2" = type { i32 }
%"class.absl::lts_20240722::AnyInvocable" = type { %"class.absl::lts_20240722::internal_any_invocable::Impl" }
%"class.absl::lts_20240722::internal_any_invocable::Impl" = type { %"class.absl::lts_20240722::internal_any_invocable::CoreImpl" }
%"class.absl::lts_20240722::internal_any_invocable::CoreImpl" = type { %"union.absl::lts_20240722::internal_any_invocable::TypeErasedState", ptr, ptr }
%"union.absl::lts_20240722::internal_any_invocable::TypeErasedState" = type { %struct.anon }
%struct.anon = type { ptr, i64 }
%"class.grpc_event_engine::experimental::EventEngine::ResolvedAddress" = type { [128 x i8], i32 }
%"class.std::shared_ptr" = type { %"class.std::__shared_ptr" }
%"class.std::__shared_ptr" = type { ptr, %"class.std::__shared_count" }
%"class.std::__shared_count" = type { ptr }
%"class.grpc_core::MemoryOwner" = type { %"class.grpc_event_engine::experimental::MemoryAllocator" }
%"class.grpc_event_engine::experimental::MemoryAllocator" = type { %"class.std::shared_ptr.3" }
%"class.std::shared_ptr.3" = type { %"class.std::__shared_ptr.4" }
%"class.std::__shared_ptr.4" = type { ptr, %"class.std::__shared_count" }
%"class.grpc_event_engine::experimental::MemoryAllocator::Reservation" = type { %"class.std::shared_ptr.3", i64 }
%"class.absl::lts_20240722::AnyInvocable.6" = type { %"class.absl::lts_20240722::internal_any_invocable::Impl.7" }
%"class.absl::lts_20240722::internal_any_invocable::Impl.7" = type { %"class.absl::lts_20240722::internal_any_invocable::CoreImpl.8" }
%"class.absl::lts_20240722::internal_any_invocable::CoreImpl.8" = type { %"union.absl::lts_20240722::internal_any_invocable::TypeErasedState", ptr, ptr }
%"class.std::unique_ptr" = type { %"struct.std::__uniq_ptr_data" }
%"struct.std::__uniq_ptr_data" = type { %"class.std::__uniq_ptr_impl" }
%"class.std::__uniq_ptr_impl" = type { %"class.std::tuple" }
%"class.std::tuple" = type { %"struct.std::_Tuple_impl" }
%"struct.std::_Tuple_impl" = type { %"struct.std::_Head_base.12" }
%"struct.std::_Head_base.12" = type { ptr }
%"class.grpc_event_engine::experimental::TracedBufferList" = type { %"class.absl::lts_20240722::Mutex", ptr, ptr }
%"class.std::shared_ptr.13" = type { %"class.std::__shared_ptr.14" }
%"class.std::__shared_ptr.14" = type { ptr, %"class.std::__shared_count" }
%"class.grpc_event_engine::experimental::TcpZerocopySendCtx" = type <{ ptr, ptr, i32, i32, %"class.absl::lts_20240722::Mutex", i32, %"struct.std::atomic.9", i8, [2 x i8], i64, %"class.absl::lts_20240722::flat_hash_map", i8, i8, i8, [5 x i8] }>
%"class.absl::lts_20240722::flat_hash_map" = type { %"class.absl::lts_20240722::container_internal::raw_hash_map" }
%"class.absl::lts_20240722::container_internal::raw_hash_map" = type { %"class.absl::lts_20240722::container_internal::raw_hash_set" }
%"class.absl::lts_20240722::container_internal::raw_hash_set" = type { %"class.absl::lts_20240722::container_internal::CompressedTuple" }
%"class.absl::lts_20240722::container_internal::CompressedTuple" = type { %"struct.absl::lts_20240722::container_internal::internal_compressed_tuple::CompressedTupleImpl" }
%"struct.absl::lts_20240722::container_internal::internal_compressed_tuple::CompressedTupleImpl" = type { %"struct.absl::lts_20240722::container_internal::internal_compressed_tuple::Storage" }
%"struct.absl::lts_20240722::container_internal::internal_compressed_tuple::Storage" = type { %"class.absl::lts_20240722::container_internal::CommonFields" }
%"class.absl::lts_20240722::container_internal::CommonFields" = type { i64, i64, %"union.absl::lts_20240722::container_internal::HeapOrSoo" }
%"union.absl::lts_20240722::container_internal::HeapOrSoo" = type { %"struct.absl::lts_20240722::container_internal::HeapPtrs" }
%"struct.absl::lts_20240722::container_internal::HeapPtrs" = type { ptr, %"union.absl::lts_20240722::container_internal::MaybeInitializedPtr" }
%"union.absl::lts_20240722::container_internal::MaybeInitializedPtr" = type { ptr }
%"class.absl::lts_20240722::MutexLock" = type { ptr }

; Function Attrs: mustprogress nounwind uwtable
define linkonce_odr noundef nonnull align 8 dereferenceable(8) ptr @_ZNSt10_Head_baseILm0EPN17grpc_event_engine12experimental18TcpZerocopySendCtxELb0EE7_M_headERKS4_(ptr noundef nonnull align 8 dereferenceable(8) %0) #6 comdat align 2 {
  %2 = alloca ptr, align 8
  store ptr %0, ptr %2, align 8, !tbaa !750
  %3 = load ptr, ptr %2, align 8, !tbaa !750
  %4 = getelementptr inbounds nuw %"struct.std::_Head_base.12", ptr %3, i32 0, i32 0
  ret ptr %4
}

; Function Attrs: mustprogress nounwind uwtable
define linkonce_odr noundef nonnull align 8 dereferenceable(8) ptr @_ZNSt11_Tuple_implILm0EJPN17grpc_event_engine12experimental18TcpZerocopySendCtxESt14default_deleteIS2_EEE7_M_headERKS6_(ptr noundef nonnull align 8 dereferenceable(8) %0) #6 comdat align 2 {
  %2 = alloca ptr, align 8
  store ptr %0, ptr %2, align 8, !tbaa !746
  %3 = load ptr, ptr %2, align 8, !tbaa !746
  %4 = call noundef nonnull align 8 dereferenceable(8) ptr @_ZNSt10_Head_baseILm0EPN17grpc_event_engine12experimental18TcpZerocopySendCtxELb0EE7_M_headERKS4_(ptr noundef nonnull align 8 dereferenceable(8) %3) #3
  ret ptr %4
}

; Function Attrs: mustprogress nounwind uwtable
define linkonce_odr noundef nonnull align 8 dereferenceable(8) ptr @_ZSt12__get_helperILm0EPN17grpc_event_engine12experimental18TcpZerocopySendCtxEJSt14default_deleteIS2_EEERKT0_RKSt11_Tuple_implIXT_EJS6_DpT1_EE(ptr noundef nonnull align 8 dereferenceable(8) %0) #6 comdat {
  %2 = alloca ptr, align 8
  store ptr %0, ptr %2, align 8, !tbaa !746
  %3 = load ptr, ptr %2, align 8, !tbaa !746
  %4 = call noundef nonnull align 8 dereferenceable(8) ptr @_ZNSt11_Tuple_implILm0EJPN17grpc_event_engine12experimental18TcpZerocopySendCtxESt14default_deleteIS2_EEE7_M_headERKS6_(ptr noundef nonnull align 8 dereferenceable(8) %3) #3
  ret ptr %4
}

; Function Attrs: mustprogress nounwind uwtable
define linkonce_odr noundef i32 @_ZStanSt12memory_orderSt23__memory_order_modifier(i32 noundef %0, i32 noundef %1) #6 comdat {
  %3 = alloca i32, align 4
  %4 = alloca i32, align 4
  store i32 %0, ptr %3, align 4, !tbaa !268
  store i32 %1, ptr %4, align 4, !tbaa !435
  %5 = load i32, ptr %3, align 4, !tbaa !268
  %6 = load i32, ptr %4, align 4, !tbaa !435
  %7 = and i32 %5, %6
  ret i32 %7
}

; Function Attrs: mustprogress nounwind uwtable
define linkonce_odr noundef nonnull align 8 dereferenceable(8) ptr @_ZSt3getILm0EJPN17grpc_event_engine12experimental18TcpZerocopySendCtxESt14default_deleteIS2_EEERKNSt13tuple_elementIXT_ESt5tupleIJDpT0_EEE4typeERKSA_(ptr noundef nonnull align 8 dereferenceable(8) %0) #6 comdat {
  %2 = alloca ptr, align 8
  store ptr %0, ptr %2, align 8, !tbaa !744
  %3 = load ptr, ptr %2, align 8, !tbaa !744
  %4 = call noundef nonnull align 8 dereferenceable(8) ptr @_ZSt12__get_helperILm0EPN17grpc_event_engine12experimental18TcpZerocopySendCtxEJSt14default_deleteIS2_EEERKT0_RKSt11_Tuple_implIXT_EJS6_DpT1_EE(ptr noundef nonnull align 8 dereferenceable(8) %3) #3
  ret ptr %4
}

; Function Attrs: alwaysinline mustprogress nounwind uwtable
define linkonce_odr void @_ZNSt13__atomic_baseIbE5storeEbSt12memory_order(ptr noundef nonnull align 1 dereferenceable(1) %0, i1 noundef zeroext %1, i32 noundef %2) #18 comdat align 2 {
  %4 = alloca ptr, align 8
  %5 = alloca i8, align 1
  %6 = alloca i32, align 4
  %7 = alloca i32, align 4
  %8 = alloca i8, align 1
  store ptr %0, ptr %4, align 8, !tbaa !572
  %9 = zext i1 %1 to i8
  store i8 %9, ptr %5, align 1, !tbaa !184
  store i32 %2, ptr %6, align 4, !tbaa !268
  %10 = load ptr, ptr %4, align 8
  call void @llvm.lifetime.start.p0(i64 4, ptr %7) #3
  %11 = load i32, ptr %6, align 4, !tbaa !268
  %12 = call noundef i32 @_ZStanSt12memory_orderSt23__memory_order_modifier(i32 noundef %11, i32 noundef 65535)
  store i32 %12, ptr %7, align 4, !tbaa !268
  br label %13

13:                                               ; preds = %3
  br label %14

14:                                               ; preds = %13
  br label %15

15:                                               ; preds = %14
  br label %16

16:                                               ; preds = %15
  br label %17

17:                                               ; preds = %16
  br label %18

18:                                               ; preds = %17
  br label %19

19:                                               ; preds = %18
  br label %20

20:                                               ; preds = %19
  br label %21

21:                                               ; preds = %20
  %22 = getelementptr inbounds nuw %"struct.std::__atomic_base.10", ptr %10, i32 0, i32 0
  %23 = load i32, ptr %6, align 4, !tbaa !268
  %24 = load i8, ptr %5, align 1, !tbaa !184, !range !115, !noundef !116
  %25 = trunc i8 %24 to i1
  %26 = zext i1 %25 to i8
  store i8 %26, ptr %8, align 1, !tbaa !184
  switch i32 %23, label %27 [
    i32 3, label %29
    i32 5, label %31
  ]

27:                                               ; preds = %21
  %28 = load i8, ptr %8, align 1
  store atomic i8 %28, ptr %22 monotonic, align 1
  br label %33

29:                                               ; preds = %21
  %30 = load i8, ptr %8, align 1
  store atomic i8 %30, ptr %22 release, align 1
  br label %33

31:                                               ; preds = %21
  %32 = load i8, ptr %8, align 1
  store atomic i8 %32, ptr %22 seq_cst, align 1
  br label %33

33:                                               ; preds = %31, %29, %27
  call void @llvm.lifetime.end.p0(i64 4, ptr %7) #3
  ret void
}

; Function Attrs: mustprogress nounwind uwtable
define linkonce_odr noundef ptr @_ZNKSt15__uniq_ptr_implIN17grpc_event_engine12experimental18TcpZerocopySendCtxESt14default_deleteIS2_EE6_M_ptrEv(ptr noundef nonnull align 8 dereferenceable(8) %0) #6 comdat align 2 {
  %2 = alloca ptr, align 8
  store ptr %0, ptr %2, align 8, !tbaa !742
  %3 = load ptr, ptr %2, align 8
  %4 = getelementptr inbounds nuw %"class.std::__uniq_ptr_impl", ptr %3, i32 0, i32 0
  %5 = call noundef nonnull align 8 dereferenceable(8) ptr @_ZSt3getILm0EJPN17grpc_event_engine12experimental18TcpZerocopySendCtxESt14default_deleteIS2_EEERKNSt13tuple_elementIXT_ESt5tupleIJDpT0_EEE4typeERKSA_(ptr noundef nonnull align 8 dereferenceable(8) %4) #3
  %6 = load ptr, ptr %5, align 8, !tbaa !165
  ret ptr %6
}

; Function Attrs: mustprogress nounwind uwtable
define linkonce_odr void @_ZN4absl12lts_202407229MutexLockD2Ev(ptr noundef nonnull align 8 dereferenceable(8) %0) unnamed_addr #6 comdat align 2 personality ptr @__gxx_personality_v0 {
  %2 = alloca ptr, align 8
  store ptr %0, ptr %2, align 8, !tbaa !467
  %3 = load ptr, ptr %2, align 8
  %4 = getelementptr inbounds nuw %"class.absl::lts_20240722::MutexLock", ptr %3, i32 0, i32 0
  %5 = load ptr, ptr %4, align 8, !tbaa !469
  invoke void @_ZN4absl12lts_202407225Mutex6UnlockEv(ptr noundef nonnull align 8 dereferenceable(8) %5)
          to label %6 unwind label %7

6:                                                ; preds = %1
  ret void

7:                                                ; preds = %1
  %8 = landingpad { ptr, i32 }
          catch ptr null
  %9 = extractvalue { ptr, i32 } %8, 0
  call void @__clang_call_terminate(ptr %9) #38
  unreachable
}

; Function Attrs: mustprogress uwtable
define linkonce_odr void @_ZN4absl12lts_202407229MutexLockC2EPNS0_5MutexE(ptr noundef nonnull align 8 dereferenceable(8) %0, ptr noundef %1) unnamed_addr #4 comdat align 2 {
  %3 = alloca ptr, align 8
  %4 = alloca ptr, align 8
  store ptr %0, ptr %3, align 8, !tbaa !467
  store ptr %1, ptr %4, align 8, !tbaa !221
  %5 = load ptr, ptr %3, align 8
  %6 = getelementptr inbounds nuw %"class.absl::lts_20240722::MutexLock", ptr %5, i32 0, i32 0
  %7 = load ptr, ptr %4, align 8, !tbaa !221
  store ptr %7, ptr %6, align 8, !tbaa !469
  %8 = getelementptr inbounds nuw %"class.absl::lts_20240722::MutexLock", ptr %5, i32 0, i32 0
  %9 = load ptr, ptr %8, align 8, !tbaa !469
  call void @_ZN4absl12lts_202407225Mutex4LockEv(ptr noundef nonnull align 8 dereferenceable(8) %9)
  ret void
}

; Function Attrs: mustprogress nounwind uwtable
define linkonce_odr void @_ZNSt6atomicIbE5storeEbSt12memory_order(ptr noundef nonnull align 1 dereferenceable(1) %0, i1 noundef zeroext %1, i32 noundef %2) #6 comdat align 2 {
  %4 = alloca ptr, align 8
  %5 = alloca i8, align 1
  %6 = alloca i32, align 4
  store ptr %0, ptr %4, align 8, !tbaa !266
  %7 = zext i1 %1 to i8
  store i8 %7, ptr %5, align 1, !tbaa !184
  store i32 %2, ptr %6, align 4, !tbaa !268
  %8 = load ptr, ptr %4, align 8
  %9 = getelementptr inbounds nuw %"struct.std::atomic.9", ptr %8, i32 0, i32 0
  %10 = load i8, ptr %5, align 1, !tbaa !184, !range !115, !noundef !116
  %11 = trunc i8 %10 to i1
  %12 = load i32, ptr %6, align 4, !tbaa !268
  call void @_ZNSt13__atomic_baseIbE5storeEbSt12memory_order(ptr noundef nonnull align 1 dereferenceable(1) %9, i1 noundef zeroext %11, i32 noundef %12) #3
  ret void
}

; Function Attrs: mustprogress nounwind uwtable
define linkonce_odr noundef ptr @_ZNKSt10unique_ptrIN17grpc_event_engine12experimental18TcpZerocopySendCtxESt14default_deleteIS2_EE3getEv(ptr noundef nonnull align 8 dereferenceable(8) %0) #6 comdat align 2 {
  %2 = alloca ptr, align 8
  store ptr %0, ptr %2, align 8, !tbaa !163
  %3 = load ptr, ptr %2, align 8
  %4 = getelementptr inbounds nuw %"class.std::unique_ptr", ptr %3, i32 0, i32 0
  %5 = call noundef ptr @_ZNKSt15__uniq_ptr_implIN17grpc_event_engine12experimental18TcpZerocopySendCtxESt14default_deleteIS2_EE6_M_ptrEv(ptr noundef nonnull align 8 dereferenceable(8) %4) #3
  ret ptr %5
}

; Function Attrs: mustprogress uwtable
define linkonce_odr noundef zeroext i1 @_ZN17grpc_event_engine12experimental18TcpZerocopySendCtx19AllSendRecordsEmptyEv(ptr noundef nonnull align 8 dereferenceable(83) %0) #4 comdat align 2 {
  %2 = alloca ptr, align 8
  %3 = alloca %"class.absl::lts_20240722::MutexLock", align 8
  store ptr %0, ptr %2, align 8, !tbaa !165
  %4 = load ptr, ptr %2, align 8
  call void @llvm.lifetime.start.p0(i64 8, ptr %3) #3
  %5 = getelementptr inbounds nuw %"class.grpc_event_engine::experimental::TcpZerocopySendCtx", ptr %4, i32 0, i32 4
  call void @_ZN4absl12lts_202407229MutexLockC2EPNS0_5MutexE(ptr noundef nonnull align 8 dereferenceable(8) %3, ptr noundef %5)
  %6 = getelementptr inbounds nuw %"class.grpc_event_engine::experimental::TcpZerocopySendCtx", ptr %4, i32 0, i32 3
  %7 = load i32, ptr %6, align 4, !tbaa !261
  %8 = getelementptr inbounds nuw %"class.grpc_event_engine::experimental::TcpZerocopySendCtx", ptr %4, i32 0, i32 2
  %9 = load i32, ptr %8, align 8, !tbaa !262
  %10 = icmp eq i32 %7, %9
  call void @_ZN4absl12lts_202407229MutexLockD2Ev(ptr noundef nonnull align 8 dereferenceable(8) %3) #3
  call void @llvm.lifetime.end.p0(i64 8, ptr %3) #3
  ret i1 %10
}

; Function Attrs: mustprogress nounwind uwtable
define linkonce_odr void @_ZN17grpc_event_engine12experimental18TcpZerocopySendCtx8ShutdownEv(ptr noundef nonnull align 8 dereferenceable(83) %0) #6 comdat align 2 {
  %2 = alloca ptr, align 8
  store ptr %0, ptr %2, align 8, !tbaa !165
  %3 = load ptr, ptr %2, align 8
  %4 = getelementptr inbounds nuw %"class.grpc_event_engine::experimental::TcpZerocopySendCtx", ptr %3, i32 0, i32 6
  call void @_ZNSt6atomicIbE5storeEbSt12memory_order(ptr noundef nonnull align 1 dereferenceable(1) %4, i1 noundef zeroext true, i32 noundef 3) #3
  ret void
}

; Function Attrs: mustprogress nounwind uwtable
define linkonce_odr noundef ptr @_ZNKSt10unique_ptrIN17grpc_event_engine12experimental18TcpZerocopySendCtxESt14default_deleteIS2_EEptEv(ptr noundef nonnull align 8 dereferenceable(8) %0) #6 comdat align 2 {
  %2 = alloca ptr, align 8
  store ptr %0, ptr %2, align 8, !tbaa !163
  %3 = load ptr, ptr %2, align 8
  %4 = call noundef ptr @_ZNKSt10unique_ptrIN17grpc_event_engine12experimental18TcpZerocopySendCtxESt14default_deleteIS2_EE3getEv(ptr noundef nonnull align 8 dereferenceable(8) %3) #3
  ret ptr %4
}

; Function Attrs: mustprogress uwtable
define void @_ZN17grpc_event_engine12experimental17PosixEndpointImpl34ZerocopyDisableAndWaitForRemainingEv(ptr noundef nonnull align 16 dereferenceable(904) %0) #4 align 2 {
  %2 = alloca ptr, align 8
  store ptr %0, ptr %2, align 8, !tbaa !42
  %3 = load ptr, ptr %2, align 8
  %4 = getelementptr inbounds nuw %"class.grpc_event_engine::experimental::PosixEndpointImpl", ptr %3, i32 0, i32 37
  %5 = call noundef ptr @_ZNKSt10unique_ptrIN17grpc_event_engine12experimental18TcpZerocopySendCtxESt14default_deleteIS2_EEptEv(ptr noundef nonnull align 8 dereferenceable(8) %4) #3
  call void @_ZN17grpc_event_engine12experimental18TcpZerocopySendCtx8ShutdownEv(ptr noundef nonnull align 8 dereferenceable(83) %5)
  br label %6

6:                                                ; preds = %11, %1
  %7 = getelementptr inbounds nuw %"class.grpc_event_engine::experimental::PosixEndpointImpl", ptr %3, i32 0, i32 37
  %8 = call noundef ptr @_ZNKSt10unique_ptrIN17grpc_event_engine12experimental18TcpZerocopySendCtxESt14default_deleteIS2_EEptEv(ptr noundef nonnull align 8 dereferenceable(8) %7) #3
  %9 = call noundef zeroext i1 @_ZN17grpc_event_engine12experimental18TcpZerocopySendCtx19AllSendRecordsEmptyEv(ptr noundef nonnull align 8 dereferenceable(83) %8)
  %10 = xor i1 %9, true
  br i1 %10, label %11, label %13

11:                                               ; preds = %6
  %12 = call noundef zeroext i1 @_ZN17grpc_event_engine12experimental17PosixEndpointImpl13ProcessErrorsEv(ptr noundef nonnull align 16 dereferenceable(904) %3)
  br label %6, !llvm.loop !260

13:                                               ; preds = %6
  ret void
}