; Function Attrs: mustprogress uwtable
define void @_ZN17grpc_event_engine12experimental17PosixEndpointImpl34ZerocopyDisableAndWaitForRemainingEv(ptr noundef nonnull align 16 dereferenceable(904) %0) local_unnamed_addr #5 align 2 personality ptr @__gxx_personality_v0 {
  %2 = getelementptr inbounds nuw i8, ptr %0, i64 824
  %3 = load ptr, ptr %2, align 8, !tbaa !182
  %4 = getelementptr inbounds nuw i8, ptr %3, i64 36
  store atomic i8 1, ptr %4 release, align 1
  br label %5

5:                                                ; preds = %16, %1
  %6 = load ptr, ptr %2, align 8, !tbaa !182
  %7 = getelementptr inbounds nuw i8, ptr %6, i64 24
  tail call void @_ZN4absl12lts_202407225Mutex4LockEv(ptr noundef nonnull align 8 dereferenceable(8) %7)
  %8 = getelementptr inbounds nuw i8, ptr %6, i64 20
  %9 = load i32, ptr %8, align 4, !tbaa !261
  %10 = getelementptr inbounds nuw i8, ptr %6, i64 16
  %11 = load i32, ptr %10, align 8, !tbaa !272
  invoke void @_ZN4absl12lts_202407225Mutex6UnlockEv(ptr noundef nonnull align 8 dereferenceable(8) %7)
          to label %_ZN17grpc_event_engine12experimental18TcpZerocopySendCtx19AllSendRecordsEmptyEv.exit unwind label %12

12:                                               ; preds = %5
  %13 = landingpad { ptr, i32 }
          catch ptr null
  %14 = extractvalue { ptr, i32 } %13, 0
  tail call void @__clang_call_terminate(ptr %14) #43
  unreachable

_ZN17grpc_event_engine12experimental18TcpZerocopySendCtx19AllSendRecordsEmptyEv.exit: ; preds = %5
  %15 = icmp eq i32 %9, %11
  br i1 %15, label %18, label %16

16:                                               ; preds = %_ZN17grpc_event_engine12experimental18TcpZerocopySendCtx19AllSendRecordsEmptyEv.exit
  %17 = tail call noundef zeroext i1 @_ZN17grpc_event_engine12experimental17PosixEndpointImpl13ProcessErrorsEv(ptr noundef nonnull align 16 dereferenceable(904) %0)
  br label %5, !llvm.loop !273

18:                                               ; preds = %_ZN17grpc_event_engine12experimental18TcpZerocopySendCtx19AllSendRecordsEmptyEv.exit
  ret void
}